Certificate:
    Data:
        Version: 3 (0x2)
        Serial Number: 0 (0x0)
    Signature Algorithm: sha1WithRSAEncryption
        Issuer: C=PE, ST=Lima, L=Lima, O=Universidad de Lima, OU=Ingenieria de Sistemas, CN=Diego Garcia/emailAddress=garcia.diego1197@gmail.com
        Validity
            Not Before: Oct  5 06:38:57 2020 GMT
            Not After : Oct  5 06:38:57 2021 GMT
        Subject: C=PE, ST=Lima, O=Universidad de Lima, OU=Ing de Sistemas, CN=Diego Garcia/emailAddress=garcia.diego1197@gmail.com
        Subject Public Key Info:
            Public Key Algorithm: rsaEncryption
                Public-Key: (1024 bit)
                Modulus:
                    00:be:86:3d:a5:6d:b2:52:67:b5:e9:ec:1d:c5:f7:
                    d0:aa:2a:19:e7:a8:bf:8b:d8:67:59:77:c8:1a:bf:
                    33:b5:55:f6:39:33:7e:d5:e6:7f:a6:99:80:4c:2d:
                    b8:be:d0:04:e2:b5:1c:de:7b:f4:98:a3:9e:c1:e3:
                    8c:ad:56:8e:77:03:04:20:83:d3:0a:86:33:9c:f1:
                    9b:ca:ad:b9:48:53:99:7e:82:6e:09:af:7c:cd:71:
                    5f:ba:67:9c:df:8d:3a:bf:bc:f4:a9:47:22:bd:14:
                    0c:dc:55:d9:fb:5f:31:02:bc:2e:61:bf:d3:e7:70:
                    fe:25:f9:b0:15:6e:93:97:57
                Exponent: 65537 (0x10001)
        X509v3 extensions:
            X509v3 Basic Constraints: 
                CA:FALSE
            Netscape Comment: 
                OpenSSL Generated Certificate
            X509v3 Subject Key Identifier: 
                C0:40:EF:90:A6:7B:92:C5:C4:B2:AC:0C:4A:3C:C1:ED:54:AD:04:D5
            X509v3 Authority Key Identifier: 
                DirName:/C=PE/ST=Lima/L=Lima/O=Universidad de Lima/OU=Ingenieria de Sistemas/CN=Diego Garcia/emailAddress=garcia.diego1197@gmail.com
                serial:EC:46:EF:D0:A7:D2:D2:22

    Signature Algorithm: sha1WithRSAEncryption
         51:98:dc:e2:03:1c:82:77:60:64:fd:fe:9c:99:8f:e4:67:51:
         17:b4:42:07:d3:1b:12:d5:ca:48:ac:47:7f:b2:52:c5:8e:7e:
         ca:d1:14:9e:84:44:c0:45:2f:67:05:2d:ea:2e:db:df:8f:45:
         ad:aa:b2:48:7b:8d:84:dc:6b:a3:b8:4d:9e:a5:86:b1:de:66:
         5c:71:4c:84:32:ca:38:26:48:e8:b9:30:2f:8b:03:8c:77:9d:
         76:28:52:16:91:5a:b5:db:27:7e:cf:43:bc:78:a2:e6:50:ad:
         2c:3a:30:01:c9:34:62:37:2c:d6:aa:09:6d:54:0d:1c:c2:af:
         61:a7
-----BEGIN CERTIFICATE-----
MIID5jCCA0+gAwIBAgIBADANBgkqhkiG9w0BAQUFADCBrDELMAkGA1UEBhMCUEUx
DTALBgNVBAgMBExpbWExDTALBgNVBAcMBExpbWExHDAaBgNVBAoME1VuaXZlcnNp
ZGFkIGRlIExpbWExHzAdBgNVBAsMFkluZ2VuaWVyaWEgZGUgU2lzdGVtYXMxFTAT
BgNVBAMMDERpZWdvIEdhcmNpYTEpMCcGCSqGSIb3DQEJARYaZ2FyY2lhLmRpZWdv
MTE5N0BnbWFpbC5jb20wHhcNMjAxMDA1MDYzODU3WhcNMjExMDA1MDYzODU3WjCB
ljELMAkGA1UEBhMCUEUxDTALBgNVBAgMBExpbWExHDAaBgNVBAoME1VuaXZlcnNp
ZGFkIGRlIExpbWExGDAWBgNVBAsMD0luZyBkZSBTaXN0ZW1hczEVMBMGA1UEAwwM
RGllZ28gR2FyY2lhMSkwJwYJKoZIhvcNAQkBFhpnYXJjaWEuZGllZ28xMTk3QGdt
YWlsLmNvbTCBnzANBgkqhkiG9w0BAQEFAAOBjQAwgYkCgYEAvoY9pW2yUme16ewd
xffQqioZ56i/i9hnWXfIGr8ztVX2OTN+1eZ/ppmATC24vtAE4rUc3nv0mKOeweOM
rVaOdwMEIIPTCoYznPGbyq25SFOZfoJuCa98zXFfumec3406v7z0qUcivRQM3FXZ
+18xArwuYb/T53D+JfmwFW6Tl1cCAwEAAaOCASowggEmMAkGA1UdEwQCMAAwLAYJ
YIZIAYb4QgENBB8WHU9wZW5TU0wgR2VuZXJhdGVkIENlcnRpZmljYXRlMB0GA1Ud
DgQWBBTAQO+QpnuSxcSyrAxKPMHtVK0E1TCBywYDVR0jBIHDMIHAoYGypIGvMIGs
MQswCQYDVQQGEwJQRTENMAsGA1UECAwETGltYTENMAsGA1UEBwwETGltYTEcMBoG
A1UECgwTVW5pdmVyc2lkYWQgZGUgTGltYTEfMB0GA1UECwwWSW5nZW5pZXJpYSBk
ZSBTaXN0ZW1hczEVMBMGA1UEAwwMRGllZ28gR2FyY2lhMSkwJwYJKoZIhvcNAQkB
FhpnYXJjaWEuZGllZ28xMTk3QGdtYWlsLmNvbYIJAOxG79Cn0tIiMA0GCSqGSIb3
DQEBBQUAA4GBAFGY3OIDHIJ3YGT9/pyZj+RnURe0QgfTGxLVykisR3+yUsWOfsrR
FJ6ERMBFL2cFLeou29+PRa2qskh7jYTca6O4TZ6lhrHeZlxxTIQyyjgmSOi5MC+L
A4x3nXYoUhaRWrXbJ37PQ7x4ouZQrSw6MAHJNGI3LNaqCW1UDRzCr2Gn
-----END CERTIFICATE-----
